; Function Attrs: nofree norecurse nosync nounwind memory(readwrite, inaccessiblemem: write) uwtable
define void @Gia_GlaAddToCounters(ptr noundef readonly captures(none) %0, ptr noundef readonly captures(none) %1) local_unnamed_addr #12 {
  %3 = getelementptr i8, ptr %1, i64 4
  %.val9 = load i32, ptr %3, align 4, !tbaa !3
  %4 = icmp sgt i32 %.val9, 0
  br i1 %4, label %Gla_ManObj.exit.lr.ph, label %.critedge

Gla_ManObj.exit.lr.ph:                            ; preds = %2
  %5 = getelementptr i8, ptr %1, i64 8
  %.val7 = load ptr, ptr %5, align 8, !tbaa !11
  %6 = getelementptr inbounds nuw i8, ptr %0, i64 40
  %7 = load ptr, ptr %6, align 8, !tbaa !23
  %8 = getelementptr inbounds nuw i8, ptr %0, i64 120
  %9 = load ptr, ptr %8, align 8, !tbaa !149
  %10 = getelementptr i8, ptr %9, i64 8
  %.val8 = load ptr, ptr %10, align 8, !tbaa !11
  br label %Gla_ManObj.exit

Gla_ManObj.exit:                                  ; preds = %Gla_ManObj.exit.lr.ph, %Gla_ManObj.exit
  %indvars.iv = phi i64 [ 0, %Gla_ManObj.exit.lr.ph ], [ %indvars.iv.next, %Gla_ManObj.exit ]
  %11 = getelementptr inbounds nuw i32, ptr %.val7, i64 %indvars.iv
  %12 = load i32, ptr %11, align 4, !tbaa !22
  %.not.i = icmp ne i32 %12, 0
  tail call void @llvm.assume(i1 %.not.i)
  %13 = sext i32 %12 to i64
  %14 = getelementptr inbounds %struct.Gla_Obj_t_, ptr %7, i64 %13
  %15 = load i32, ptr %14, align 8, !tbaa !24
  %16 = sext i32 %15 to i64
  %17 = getelementptr inbounds i32, ptr %.val8, i64 %16
  %18 = load i32, ptr %17, align 4, !tbaa !22
  %19 = add nsw i32 %18, 1
  store i32 %19, ptr %17, align 4, !tbaa !22
  %indvars.iv.next = add nuw nsw i64 %indvars.iv, 1
  %.val = load i32, ptr %3, align 4, !tbaa !3
  %20 = sext i32 %.val to i64
  %21 = icmp slt i64 %indvars.iv.next, %20
  br i1 %21, label %Gla_ManObj.exit, label %.critedge, !llvm.loop !207

.critedge:                                        ; preds = %Gla_ManObj.exit, %2
  ret void
}